target datalayout = "e-m:e-p270:32:32-p271:32:32-p272:64:64-i64:64-i128:128-f80:128-n8:16:32:64-S128"
target triple = "x86_64-pc-linux-gnu"

%class.LogTagSet = type { ptr, i64, [5 x i32], [4 x i8], %class.LogOutputList, %class.LogDecorators, ptr }
%class.LogOutputList = type <{ [6 x ptr], i32, [4 x i8] }>
%class.LogDecorators = type { i32 }
%class.CgroupV2Controller = type { %class.CgroupController, ptr, ptr, i8, ptr }
%class.CgroupController = type { ptr }
%class.CgroupV2MemoryController = type { %class.CgroupMemoryController, %class.CgroupV2Controller }
%class.CgroupMemoryController = type { ptr }

@.str.19 = private unnamed_addr constant [16 x i8] c"/memory.current\00", align 1
@.str.20 = private unnamed_addr constant [24 x i8] c"Memory Usage failed: %d\00", align 1
@.str.21 = private unnamed_addr constant [21 x i8] c"Memory Usage is: %lu\00", align 1
@_ZN16LogTagSetMappingILN6LogTag4typeE105ELS1_25ELS1_0ELS1_0ELS1_0ELS1_0EE7_tagsetE = linkonce_odr hidden global %class.LogTagSet zeroinitializer, comdat, align 8
@.str.51 = private unnamed_addr constant [21 x i8] c"/memory.swap.current\00", align 1
@.str.52 = private unnamed_addr constant [31 x i8] c"Swap currently used failed: %d\00", align 1
@.str.53 = private unnamed_addr constant [28 x i8] c"Swap currently used is: %lu\00", align 1

; Function Attrs: mustprogress nounwind uwtable
define linkonce_odr hidden noundef zeroext i1 @_ZNK13LogOutputList8is_levelEN8LogLevel4typeE(ptr noundef nonnull align 8 dereferenceable(52) %0, i32 noundef %1) #1 comdat align 2 {
  %3 = alloca ptr, align 8
  %4 = alloca i32, align 4
  store ptr %0, ptr %3, align 8
  store i32 %1, ptr %4, align 4
  %5 = load ptr, ptr %3, align 8
  %6 = getelementptr inbounds %class.LogOutputList, ptr %5, i32 0, i32 0
  %7 = load i32, ptr %4, align 4
  %8 = zext i32 %7 to i64
  %9 = getelementptr inbounds [6 x ptr], ptr %6, i64 0, i64 %8
  %10 = load volatile ptr, ptr %9, align 8
  %11 = icmp ne ptr %10, null
  ret i1 %11
}

; Function Attrs: mustprogress nounwind uwtable
define linkonce_odr hidden noundef zeroext i1 @_ZNK9LogTagSet8is_levelEN8LogLevel4typeE(ptr noundef nonnull align 8 dereferenceable(112) %0, i32 noundef %1) #1 comdat align 2 {
  %3 = alloca ptr, align 8
  %4 = alloca i32, align 4
  store ptr %0, ptr %3, align 8
  store i32 %1, ptr %4, align 4
  %5 = load ptr, ptr %3, align 8
  %6 = getelementptr inbounds %class.LogTagSet, ptr %5, i32 0, i32 4
  %7 = load i32, ptr %4, align 4
  %8 = call noundef zeroext i1 @_ZNK13LogOutputList8is_levelEN8LogLevel4typeE(ptr noundef nonnull align 8 dereferenceable(52) %6, i32 noundef %7)
  ret i1 %8
}

; Function Attrs: mustprogress nounwind uwtable
define linkonce_odr hidden noundef nonnull align 8 dereferenceable(112) ptr @_ZN16LogTagSetMappingILN6LogTag4typeE105ELS1_25ELS1_0ELS1_0ELS1_0ELS1_0EE6tagsetEv() #1 comdat align 2 {
  ret ptr @_ZN16LogTagSetMappingILN6LogTag4typeE105ELS1_25ELS1_0ELS1_0ELS1_0ELS1_0EE7_tagsetE
}

; Function Attrs: mustprogress nounwind uwtable
define linkonce_odr hidden noundef zeroext i1 @_ZN7LogImplILN6LogTag4typeE105ELS1_25ELS1_0ELS1_0ELS1_0ELS1_0EE8is_levelEN8LogLevel4typeE(i32 noundef %0) #1 comdat align 2 {
  %2 = alloca i32, align 4
  store i32 %0, ptr %2, align 4
  %3 = call noundef nonnull align 8 dereferenceable(112) ptr @_ZN16LogTagSetMappingILN6LogTag4typeE105ELS1_25ELS1_0ELS1_0ELS1_0ELS1_0EE6tagsetEv()
  %4 = load i32, ptr %2, align 4
  %5 = call noundef zeroext i1 @_ZNK9LogTagSet8is_levelEN8LogLevel4typeE(ptr noundef nonnull align 8 dereferenceable(112) %3, i32 noundef %4)
  ret i1 %5
}

; Function Attrs: mustprogress nounwind uwtable
define internal noundef i64 @_ZL25memory_swap_current_valueP18CgroupV2Controller(ptr noundef %0) #1 {
  %2 = alloca i64, align 8
  %3 = alloca ptr, align 8
  %4 = alloca i64, align 8
  %5 = alloca i8, align 1
  store ptr %0, ptr %3, align 8
  %6 = load ptr, ptr %3, align 8
  %7 = call noundef zeroext i1 @_ZN16CgroupController11read_numberEPKcPm(ptr noundef nonnull align 8 dereferenceable(8) %6, ptr noundef @.str.51, ptr noundef %4)
  %8 = zext i1 %7 to i8
  store i8 %8, ptr %5, align 1
  %9 = load i8, ptr %5, align 1
  %10 = trunc i8 %9 to i1
  br i1 %10, label %16, label %11

11:                                               ; preds = %1
  %12 = call noundef zeroext i1 @_ZN7LogImplILN6LogTag4typeE105ELS1_25ELS1_0ELS1_0ELS1_0ELS1_0EE8is_levelEN8LogLevel4typeE(i32 noundef 1)
  br i1 %12, label %14, label %13

13:                                               ; preds = %11
  br label %15

14:                                               ; preds = %11
  call void (ptr, ...) @_ZN7LogImplILN6LogTag4typeE105ELS1_25ELS1_0ELS1_0ELS1_0ELS1_0EE5writeILN8LogLevel4typeE1EEEvPKcz(ptr noundef @.str.52, i32 noundef -2)
  br label %15

15:                                               ; preds = %14, %13
  store i64 -2, ptr %2, align 8
  br label %23

16:                                               ; preds = %1
  %17 = call noundef zeroext i1 @_ZN7LogImplILN6LogTag4typeE105ELS1_25ELS1_0ELS1_0ELS1_0ELS1_0EE8is_levelEN8LogLevel4typeE(i32 noundef 1)
  br i1 %17, label %19, label %18

18:                                               ; preds = %16
  br label %21

19:                                               ; preds = %16
  %20 = load i64, ptr %4, align 8
  call void (ptr, ...) @_ZN7LogImplILN6LogTag4typeE105ELS1_25ELS1_0ELS1_0ELS1_0ELS1_0EE5writeILN8LogLevel4typeE1EEEvPKcz(ptr noundef @.str.53, i64 noundef %20)
  br label %21

21:                                               ; preds = %19, %18
  %22 = load i64, ptr %4, align 8
  store i64 %22, ptr %2, align 8
  br label %23

23:                                               ; preds = %21, %15
  %24 = load i64, ptr %2, align 8
  ret i64 %24
}

; Function Attrs: mustprogress nounwind uwtable
define linkonce_odr hidden noundef ptr @_ZN24CgroupV2MemoryController6readerEv(ptr noundef nonnull align 8 dereferenceable(48) %0) #1 comdat align 2 {
  %2 = alloca ptr, align 8
  store ptr %0, ptr %2, align 8
  %3 = load ptr, ptr %2, align 8
  %4 = getelementptr inbounds %class.CgroupV2MemoryController, ptr %3, i32 0, i32 1
  ret ptr %4
}

; Function Attrs: mustprogress nounwind uwtable
define hidden noundef i64 @_ZN24CgroupV2MemoryController21memory_usage_in_bytesEv(ptr noundef nonnull align 8 dereferenceable(48) %0) unnamed_addr #1 align 2 {
  %2 = alloca i64, align 8
  %3 = alloca ptr, align 8
  %4 = alloca i64, align 8
  %5 = alloca i8, align 1
  store ptr %0, ptr %3, align 8
  %6 = load ptr, ptr %3, align 8
  %7 = call noundef ptr @_ZN24CgroupV2MemoryController6readerEv(ptr noundef nonnull align 8 dereferenceable(48) %6)
  %8 = call noundef zeroext i1 @_ZN16CgroupController11read_numberEPKcPm(ptr noundef nonnull align 8 dereferenceable(8) %7, ptr noundef @.str.19, ptr noundef %4)
  %9 = zext i1 %8 to i8
  store i8 %9, ptr %5, align 1
  %10 = load i8, ptr %5, align 1
  %11 = trunc i8 %10 to i1
  br i1 %11, label %17, label %12

12:                                               ; preds = %1
  %13 = call noundef zeroext i1 @_ZN7LogImplILN6LogTag4typeE105ELS1_25ELS1_0ELS1_0ELS1_0ELS1_0EE8is_levelEN8LogLevel4typeE(i32 noundef 1)
  br i1 %13, label %15, label %14

14:                                               ; preds = %12
  br label %16

15:                                               ; preds = %12
  call void (ptr, ...) @_ZN7LogImplILN6LogTag4typeE105ELS1_25ELS1_0ELS1_0ELS1_0ELS1_0EE5writeILN8LogLevel4typeE1EEEvPKcz(ptr noundef @.str.20, i32 noundef -2)
  br label %16

16:                                               ; preds = %15, %14
  store i64 -2, ptr %2, align 8
  br label %24

17:                                               ; preds = %1
  %18 = call noundef zeroext i1 @_ZN7LogImplILN6LogTag4typeE105ELS1_25ELS1_0ELS1_0ELS1_0ELS1_0EE8is_levelEN8LogLevel4typeE(i32 noundef 1)
  br i1 %18, label %20, label %19

19:                                               ; preds = %17
  br label %22

20:                                               ; preds = %17
  %21 = load i64, ptr %4, align 8
  call void (ptr, ...) @_ZN7LogImplILN6LogTag4typeE105ELS1_25ELS1_0ELS1_0ELS1_0ELS1_0EE5writeILN8LogLevel4typeE1EEEvPKcz(ptr noundef @.str.21, i64 noundef %21)
  br label %22

22:                                               ; preds = %20, %19
  %23 = load i64, ptr %4, align 8
  store i64 %23, ptr %2, align 8
  br label %24

24:                                               ; preds = %22, %16
  %25 = load i64, ptr %2, align 8
  ret i64 %25
}

; Function Attrs: mustprogress nounwind uwtable
define hidden noundef i64 @_ZN24CgroupV2MemoryController30memory_and_swap_usage_in_bytesEmm(ptr noundef nonnull align 8 dereferenceable(48) %0, i64 noundef %1, i64 noundef %2) unnamed_addr #1 align 2 {
  %4 = alloca i64, align 8
  %5 = alloca ptr, align 8
  %6 = alloca i64, align 8
  %7 = alloca i64, align 8
  %8 = alloca i64, align 8
  %9 = alloca i64, align 8
  store ptr %0, ptr %5, align 8
  store i64 %1, ptr %6, align 8
  store i64 %2, ptr %7, align 8
  %10 = load ptr, ptr %5, align 8
  %11 = call noundef i64 @_ZN24CgroupV2MemoryController21memory_usage_in_bytesEv(ptr noundef nonnull align 8 dereferenceable(48) %10)
  store i64 %11, ptr %8, align 8
  %12 = load i64, ptr %8, align 8
  %13 = icmp sge i64 %12, 0
  br i1 %13, label %14, label %26

14:                                               ; preds = %3
  %15 = call noundef ptr @_ZN24CgroupV2MemoryController6readerEv(ptr noundef nonnull align 8 dereferenceable(48) %10)
  %16 = call noundef i64 @_ZL25memory_swap_current_valueP18CgroupV2Controller(ptr noundef %15)
  store i64 %16, ptr %9, align 8
  %17 = load i64, ptr %8, align 8
  %18 = load i64, ptr %9, align 8
  %19 = icmp sge i64 %18, 0
  br i1 %19, label %20, label %22

20:                                               ; preds = %14
  %21 = load i64, ptr %9, align 8
  br label %23

22:                                               ; preds = %14
  br label %23

23:                                               ; preds = %22, %20
  %24 = phi i64 [ %21, %20 ], [ 0, %22 ]
  %25 = add nsw i64 %17, %24
  store i64 %25, ptr %4, align 8
  br label %28

26:                                               ; preds = %3
  %27 = load i64, ptr %8, align 8
  store i64 %27, ptr %4, align 8
  br label %28

28:                                               ; preds = %26, %23
  %29 = load i64, ptr %4, align 8
  ret i64 %29
}