; Function Attrs: mustprogress nounwind uwtable
define hidden noundef i64 @_ZN24CgroupV2MemoryController30memory_and_swap_usage_in_bytesEmm(ptr noundef nonnull align 8 dereferenceable(48) %0, i64 %1, i64 %2) unnamed_addr #0 align 2 {
  %4 = alloca i64, align 8
  %5 = alloca i64, align 8
  call void @llvm.lifetime.start.p0(i64 8, ptr nonnull %5)
  %6 = getelementptr inbounds i8, ptr %0, i64 8
  %7 = call noundef zeroext i1 @_ZN16CgroupController11read_numberEPKcPm(ptr noundef nonnull align 8 dereferenceable(8) %6, ptr noundef nonnull @.str.19, ptr noundef nonnull %5) #8
  %8 = load volatile ptr, ptr getelementptr inbounds (i8, ptr @_ZN16LogTagSetMappingILN6LogTag4typeE105ELS1_25ELS1_0ELS1_0ELS1_0ELS1_0EE7_tagsetE, i64 48), align 8
  %.not2.i = icmp eq ptr %8, null
  br i1 %7, label %11, label %9

9:                                                ; preds = %3
  br i1 %.not2.i, label %_ZN24CgroupV2MemoryController21memory_usage_in_bytesEv.exit.thread, label %10

10:                                               ; preds = %9
  call void (ptr, ...) @_ZN7LogImplILN6LogTag4typeE105ELS1_25ELS1_0ELS1_0ELS1_0ELS1_0EE5writeILN8LogLevel4typeE1EEEvPKcz(ptr noundef nonnull @.str.20, i32 noundef -2)
  br label %_ZN24CgroupV2MemoryController21memory_usage_in_bytesEv.exit.thread

11:                                               ; preds = %3
  br i1 %.not2.i, label %_ZN24CgroupV2MemoryController21memory_usage_in_bytesEv.exit, label %12

12:                                               ; preds = %11
  %13 = load i64, ptr %5, align 8
  call void (ptr, ...) @_ZN7LogImplILN6LogTag4typeE105ELS1_25ELS1_0ELS1_0ELS1_0ELS1_0EE5writeILN8LogLevel4typeE1EEEvPKcz(ptr noundef nonnull @.str.21, i64 noundef %13)
  br label %_ZN24CgroupV2MemoryController21memory_usage_in_bytesEv.exit

_ZN24CgroupV2MemoryController21memory_usage_in_bytesEv.exit.thread: ; preds = %9, %10
  call void @llvm.lifetime.end.p0(i64 8, ptr nonnull %5)
  br label %28

_ZN24CgroupV2MemoryController21memory_usage_in_bytesEv.exit: ; preds = %11, %12
  %14 = load i64, ptr %5, align 8
  call void @llvm.lifetime.end.p0(i64 8, ptr nonnull %5)
  %15 = icmp sgt i64 %14, -1
  br i1 %15, label %16, label %28

16:                                               ; preds = %_ZN24CgroupV2MemoryController21memory_usage_in_bytesEv.exit
  call void @llvm.lifetime.start.p0(i64 8, ptr nonnull %4)
  %17 = call noundef zeroext i1 @_ZN16CgroupController11read_numberEPKcPm(ptr noundef nonnull align 8 dereferenceable(8) %6, ptr noundef nonnull @.str.51, ptr noundef nonnull %4) #8
  %18 = load volatile ptr, ptr getelementptr inbounds (i8, ptr @_ZN16LogTagSetMappingILN6LogTag4typeE105ELS1_25ELS1_0ELS1_0ELS1_0ELS1_0EE7_tagsetE, i64 48), align 8
  %.not2.i7 = icmp eq ptr %18, null
  br i1 %17, label %21, label %19

19:                                               ; preds = %16
  br i1 %.not2.i7, label %_ZL25memory_swap_current_valueP18CgroupV2Controller.exit, label %20

20:                                               ; preds = %19
  call void (ptr, ...) @_ZN7LogImplILN6LogTag4typeE105ELS1_25ELS1_0ELS1_0ELS1_0ELS1_0EE5writeILN8LogLevel4typeE1EEEvPKcz(ptr noundef nonnull @.str.52, i32 noundef -2)
  br label %_ZL25memory_swap_current_valueP18CgroupV2Controller.exit

21:                                               ; preds = %16
  br i1 %.not2.i7, label %24, label %22

22:                                               ; preds = %21
  %23 = load i64, ptr %4, align 8
  call void (ptr, ...) @_ZN7LogImplILN6LogTag4typeE105ELS1_25ELS1_0ELS1_0ELS1_0ELS1_0EE5writeILN8LogLevel4typeE1EEEvPKcz(ptr noundef nonnull @.str.53, i64 noundef %23)
  br label %24

24:                                               ; preds = %22, %21
  %25 = load i64, ptr %4, align 8
  br label %_ZL25memory_swap_current_valueP18CgroupV2Controller.exit

_ZL25memory_swap_current_valueP18CgroupV2Controller.exit: ; preds = %19, %20, %24
  %.0.i8 = phi i64 [ %25, %24 ], [ -2, %19 ], [ -2, %20 ]
  call void @llvm.lifetime.end.p0(i64 8, ptr nonnull %4)
  %26 = call i64 @llvm.smax.i64(i64 %.0.i8, i64 0)
  %27 = add nuw nsw i64 %26, %14
  br label %28

28:                                               ; preds = %_ZN24CgroupV2MemoryController21memory_usage_in_bytesEv.exit.thread, %_ZN24CgroupV2MemoryController21memory_usage_in_bytesEv.exit, %_ZL25memory_swap_current_valueP18CgroupV2Controller.exit
  %.0 = phi i64 [ %27, %_ZL25memory_swap_current_valueP18CgroupV2Controller.exit ], [ %14, %_ZN24CgroupV2MemoryController21memory_usage_in_bytesEv.exit ], [ -2, %_ZN24CgroupV2MemoryController21memory_usage_in_bytesEv.exit.thread ]
  ret i64 %.0
}